; Function Attrs: nounwind sspstrong uwtable
define dso_local range(i64 -1, -9223372036854775808) i64 @timerlist_deadline_ns(ptr noundef %timer_list) local_unnamed_addr #0 {
entry:
  %active_timers = getelementptr inbounds nuw i8, ptr %timer_list, i64 56
  %0 = load atomic i64, ptr %active_timers monotonic, align 8
  %tobool.not = icmp eq i64 %0, 0
  br i1 %tobool.not, label %return, label %if.end

if.end:                                           ; preds = %entry
  %1 = load ptr, ptr %timer_list, align 8
  %enabled = getelementptr inbounds nuw i8, ptr %1, i64 12
  %2 = load i8, ptr %enabled, align 4
  %tobool1 = trunc i8 %2 to i1
  br i1 %tobool1, label %for.body.us, label %return

for.body.us:                                      ; preds = %if.end
  %active_timers_lock = getelementptr inbounds nuw i8, ptr %timer_list, i64 8
  %3 = load atomic i64, ptr @qemu_mutex_lock_func monotonic, align 8
  %4 = inttoptr i64 %3 to ptr
  tail call void %4(ptr noundef nonnull %active_timers_lock, ptr noundef nonnull @.str.3, i32 noundef 122) #17
  %5 = load ptr, ptr %active_timers, align 8
  %tobool6.not.us = icmp eq ptr %5, null
  br i1 %tobool6.not.us, label %glib_autoptr_cleanup_QemuLockable.exit, label %qemu_lockable_auto_unlock.exit.us

qemu_lockable_auto_unlock.exit.us:                ; preds = %for.body.us
  %6 = load i64, ptr %5, align 8
  tail call void @qemu_mutex_unlock_impl(ptr noundef nonnull %active_timers_lock, ptr noundef nonnull @.str.3, i32 noundef 132) #17
  %7 = load ptr, ptr %timer_list, align 8
  %type = getelementptr inbounds nuw i8, ptr %7, i64 8
  %8 = load i32, ptr %type, align 8
  %call12 = tail call i64 @qemu_clock_get_ns(i32 noundef %8)
  %sub = sub i64 %6, %call12
  %.sub = tail call i64 @llvm.smax.i64(i64 %sub, i64 0)
  br label %return

glib_autoptr_cleanup_QemuLockable.exit:           ; preds = %for.body.us
  tail call void @qemu_mutex_unlock_impl(ptr noundef nonnull %active_timers_lock, ptr noundef nonnull @.str.3, i32 noundef 132) #17
  br label %return

return:                                           ; preds = %glib_autoptr_cleanup_QemuLockable.exit, %qemu_lockable_auto_unlock.exit.us, %if.end, %entry
  %retval.0 = phi i64 [ -1, %glib_autoptr_cleanup_QemuLockable.exit ], [ -1, %entry ], [ -1, %if.end ], [ %.sub, %qemu_lockable_auto_unlock.exit.us ]
  ret i64 %retval.0
}